target datalayout = "e-m:e-p270:32:32-p271:32:32-p272:64:64-i64:64-i128:128-f80:128-n8:16:32:64-S128"
target triple = "x86_64-pc-linux-gnu"

%struct.pointf_s = type { double, double }
%struct.Agrec_s = type { ptr, ptr }
%struct.Agobj_s = type { %struct.Agtag_s, ptr }
%struct.Agtag_s = type { i32, i64 }
%struct.Agraphinfo_t = type { %struct.Agrec_s, ptr, ptr, %struct.boxf, [4 x %struct.pointf_s], i8, i8, i8, i8, i32, double, double, i16, ptr, ptr, ptr, ptr, i32, ptr, ptr, ptr, ptr, i16, i16, i32, ptr, ptr, ptr, ptr, ptr, i32, ptr, ptr, %struct.nlist_t, ptr, ptr, i32, i32, i8, i8, i32, i32, i32, ptr, ptr, ptr, ptr, i8, i8, i8, i8, i8 }
%struct.boxf = type { %struct.pointf_s, %struct.pointf_s }
%struct.nlist_t = type { ptr, i64 }
%struct.rank_t = type { i32, ptr, i32, ptr, double, double, double, double, i8, i8, i64, ptr }
%struct.Agnodeinfo_t = type { %struct.Agrec_s, ptr, ptr, %struct.pointf_s, double, double, %struct.boxf, double, double, double, double, double, ptr, ptr, ptr, i8, i8, i8, i8, i32, i32, i32, ptr, double, i8, i8, ptr, ptr, i8, i64, i8, i8, i8, ptr, ptr, %struct.elist, %struct.elist, %struct.elist, %struct.elist, %struct.elist, ptr, i32, ptr, i32, i32, double, %struct.elist, %struct.elist, %struct.elist, %struct.elist, ptr, i32, i32, i32, [1 x double] }
%struct.elist = type { ptr, i64 }
%struct.pathend_t = type { %struct.boxf, %struct.pointf_s, i32, i32, [20 x %struct.boxf] }

; Function Attrs: nounwind uwtable
define internal void @makeregularend(ptr dead_on_unwind noalias writable sret(%struct.boxf) align 8 %0, ptr noundef byval(%struct.boxf) align 8 %1, i32 noundef %2, double noundef %3) #0 {
  %5 = alloca i32, align 4
  %6 = alloca double, align 8
  store i32 %2, ptr %5, align 4, !tbaa !18
  store double %3, ptr %6, align 8, !tbaa !85
  %7 = load i32, ptr %5, align 4, !tbaa !18
  %8 = icmp eq i32 %7, 1
  br i1 %8, label %9, label %26

9:                                                ; preds = %4
  %10 = getelementptr inbounds nuw %struct.boxf, ptr %0, i32 0, i32 0
  %11 = getelementptr inbounds nuw %struct.pointf_s, ptr %10, i32 0, i32 0
  %12 = getelementptr inbounds nuw %struct.boxf, ptr %1, i32 0, i32 0
  %13 = getelementptr inbounds nuw %struct.pointf_s, ptr %12, i32 0, i32 0
  %14 = load double, ptr %13, align 8, !tbaa !173
  store double %14, ptr %11, align 8, !tbaa !155
  %15 = getelementptr inbounds nuw %struct.pointf_s, ptr %10, i32 0, i32 1
  %16 = load double, ptr %6, align 8, !tbaa !85
  store double %16, ptr %15, align 8, !tbaa !154
  %17 = getelementptr inbounds nuw %struct.boxf, ptr %0, i32 0, i32 1
  %18 = getelementptr inbounds nuw %struct.pointf_s, ptr %17, i32 0, i32 0
  %19 = getelementptr inbounds nuw %struct.boxf, ptr %1, i32 0, i32 1
  %20 = getelementptr inbounds nuw %struct.pointf_s, ptr %19, i32 0, i32 0
  %21 = load double, ptr %20, align 8, !tbaa !176
  store double %21, ptr %18, align 8, !tbaa !155
  %22 = getelementptr inbounds nuw %struct.pointf_s, ptr %17, i32 0, i32 1
  %23 = getelementptr inbounds nuw %struct.boxf, ptr %1, i32 0, i32 0
  %24 = getelementptr inbounds nuw %struct.pointf_s, ptr %23, i32 0, i32 1
  %25 = load double, ptr %24, align 8, !tbaa !175
  store double %25, ptr %22, align 8, !tbaa !154
  br label %43

26:                                               ; preds = %4
  %27 = getelementptr inbounds nuw %struct.boxf, ptr %0, i32 0, i32 0
  %28 = getelementptr inbounds nuw %struct.pointf_s, ptr %27, i32 0, i32 0
  %29 = getelementptr inbounds nuw %struct.boxf, ptr %1, i32 0, i32 0
  %30 = getelementptr inbounds nuw %struct.pointf_s, ptr %29, i32 0, i32 0
  %31 = load double, ptr %30, align 8, !tbaa !173
  store double %31, ptr %28, align 8, !tbaa !155
  %32 = getelementptr inbounds nuw %struct.pointf_s, ptr %27, i32 0, i32 1
  %33 = getelementptr inbounds nuw %struct.boxf, ptr %1, i32 0, i32 1
  %34 = getelementptr inbounds nuw %struct.pointf_s, ptr %33, i32 0, i32 1
  %35 = load double, ptr %34, align 8, !tbaa !174
  store double %35, ptr %32, align 8, !tbaa !154
  %36 = getelementptr inbounds nuw %struct.boxf, ptr %0, i32 0, i32 1
  %37 = getelementptr inbounds nuw %struct.pointf_s, ptr %36, i32 0, i32 0
  %38 = getelementptr inbounds nuw %struct.boxf, ptr %1, i32 0, i32 1
  %39 = getelementptr inbounds nuw %struct.pointf_s, ptr %38, i32 0, i32 0
  %40 = load double, ptr %39, align 8, !tbaa !176
  store double %40, ptr %37, align 8, !tbaa !155
  %41 = getelementptr inbounds nuw %struct.pointf_s, ptr %36, i32 0, i32 1
  %42 = load double, ptr %6, align 8, !tbaa !85
  store double %42, ptr %41, align 8, !tbaa !154
  br label %43

43:                                               ; preds = %26, %9
  ret void
}

; Function Attrs: nounwind uwtable
define internal void @makeFlatEnd(ptr noundef %0, ptr noundef %1, ptr noundef %2, ptr noundef %3, ptr noundef %4, ptr noundef %5, i1 noundef zeroext %6) #0 {
  %8 = alloca ptr, align 8
  %9 = alloca ptr, align 8
  %10 = alloca ptr, align 8
  %11 = alloca ptr, align 8
  %12 = alloca ptr, align 8
  %13 = alloca ptr, align 8
  %14 = alloca i8, align 1
  %15 = alloca %struct.boxf, align 8
  %16 = alloca %struct.boxf, align 8
  %17 = alloca %struct.boxf, align 8
  store ptr %0, ptr %8, align 8, !tbaa !16
  store ptr %1, ptr %9, align 8, !tbaa !118
  store ptr %2, ptr %10, align 8, !tbaa !161
  store ptr %3, ptr %11, align 8, !tbaa !68
  store ptr %4, ptr %12, align 8, !tbaa !78
  store ptr %5, ptr %13, align 8, !tbaa !235
  %18 = zext i1 %6 to i8
  store i8 %18, ptr %14, align 1, !tbaa !119
  call void @llvm.lifetime.start.p0(i64 32, ptr %15) #13
  %19 = load ptr, ptr %13, align 8, !tbaa !235
  %20 = getelementptr inbounds nuw %struct.pathend_t, ptr %19, i32 0, i32 0
  call void @llvm.lifetime.start.p0(i64 32, ptr %16) #13
  %21 = load ptr, ptr %8, align 8, !tbaa !16
  %22 = load ptr, ptr %9, align 8, !tbaa !118
  %23 = load ptr, ptr %11, align 8, !tbaa !68
  %24 = load ptr, ptr %12, align 8, !tbaa !78
  call void @maximal_bbox(ptr dead_on_unwind writable sret(%struct.boxf) align 8 %16, ptr noundef %21, ptr noundef %22, ptr noundef %23, ptr noundef null, ptr noundef %24)
  call void @llvm.memcpy.p0.p0.i64(ptr align 8 %20, ptr align 8 %16, i64 32, i1 false), !tbaa.struct !172
  call void @llvm.lifetime.end.p0(i64 32, ptr %16) #13
  call void @llvm.memcpy.p0.p0.i64(ptr align 8 %15, ptr align 8 %20, i64 32, i1 false), !tbaa.struct !172
  %25 = load ptr, ptr %13, align 8, !tbaa !235
  %26 = getelementptr inbounds nuw %struct.pathend_t, ptr %25, i32 0, i32 2
  store i32 4, ptr %26, align 8, !tbaa !237
  %27 = load i8, ptr %14, align 1, !tbaa !119, !range !12, !noundef !13
  %28 = trunc i8 %27 to i1
  br i1 %28, label %29, label %33

29:                                               ; preds = %7
  %30 = load ptr, ptr %10, align 8, !tbaa !161
  %31 = load ptr, ptr %12, align 8, !tbaa !78
  %32 = load ptr, ptr %13, align 8, !tbaa !235
  call void @beginpath(ptr noundef %30, ptr noundef %31, i32 noundef 2, ptr noundef %32, i1 noundef zeroext false)
  br label %37

33:                                               ; preds = %7
  %34 = load ptr, ptr %10, align 8, !tbaa !161
  %35 = load ptr, ptr %12, align 8, !tbaa !78
  %36 = load ptr, ptr %13, align 8, !tbaa !235
  call void @endpath(ptr noundef %34, ptr noundef %35, i32 noundef 2, ptr noundef %36, i1 noundef zeroext false)
  br label %37

37:                                               ; preds = %33, %29
  %38 = load ptr, ptr %13, align 8, !tbaa !235
  %39 = getelementptr inbounds nuw %struct.pathend_t, ptr %38, i32 0, i32 4
  %40 = load ptr, ptr %13, align 8, !tbaa !235
  %41 = getelementptr inbounds nuw %struct.pathend_t, ptr %40, i32 0, i32 3
  %42 = load i32, ptr %41, align 4, !tbaa !170
  %43 = sub nsw i32 %42, 1
  %44 = sext i32 %43 to i64
  %45 = getelementptr inbounds [20 x %struct.boxf], ptr %39, i64 0, i64 %44
  %46 = getelementptr inbounds nuw %struct.boxf, ptr %45, i32 0, i32 1
  %47 = getelementptr inbounds nuw %struct.pointf_s, ptr %46, i32 0, i32 1
  %48 = load double, ptr %47, align 8, !tbaa !174
  %49 = getelementptr inbounds nuw %struct.boxf, ptr %15, i32 0, i32 1
  %50 = getelementptr inbounds nuw %struct.pointf_s, ptr %49, i32 0, i32 1
  store double %48, ptr %50, align 8, !tbaa !174
  %51 = load ptr, ptr %13, align 8, !tbaa !235
  %52 = getelementptr inbounds nuw %struct.pathend_t, ptr %51, i32 0, i32 4
  %53 = load ptr, ptr %13, align 8, !tbaa !235
  %54 = getelementptr inbounds nuw %struct.pathend_t, ptr %53, i32 0, i32 3
  %55 = load i32, ptr %54, align 4, !tbaa !170
  %56 = sub nsw i32 %55, 1
  %57 = sext i32 %56 to i64
  %58 = getelementptr inbounds [20 x %struct.boxf], ptr %52, i64 0, i64 %57
  %59 = getelementptr inbounds nuw %struct.boxf, ptr %58, i32 0, i32 0
  %60 = getelementptr inbounds nuw %struct.pointf_s, ptr %59, i32 0, i32 1
  %61 = load double, ptr %60, align 8, !tbaa !175
  %62 = getelementptr inbounds nuw %struct.boxf, ptr %15, i32 0, i32 0
  %63 = getelementptr inbounds nuw %struct.pointf_s, ptr %62, i32 0, i32 1
  store double %61, ptr %63, align 8, !tbaa !175
  call void @llvm.lifetime.start.p0(i64 32, ptr %17) #13
  %64 = load ptr, ptr %11, align 8, !tbaa !68
  %65 = getelementptr inbounds nuw %struct.Agobj_s, ptr %64, i32 0, i32 1
  %66 = load ptr, ptr %65, align 8, !tbaa !22
  %67 = getelementptr inbounds nuw %struct.Agnodeinfo_t, ptr %66, i32 0, i32 3
  %68 = getelementptr inbounds nuw %struct.pointf_s, ptr %67, i32 0, i32 1
  %69 = load double, ptr %68, align 8, !tbaa !134
  %70 = load ptr, ptr %8, align 8, !tbaa !16
  %71 = getelementptr inbounds nuw %struct.Agobj_s, ptr %70, i32 0, i32 1
  %72 = load ptr, ptr %71, align 8, !tbaa !22
  %73 = getelementptr inbounds nuw %struct.Agraphinfo_t, ptr %72, i32 0, i32 28
  %74 = load ptr, ptr %73, align 8, !tbaa !63
  %75 = load ptr, ptr %11, align 8, !tbaa !68
  %76 = getelementptr inbounds nuw %struct.Agobj_s, ptr %75, i32 0, i32 1
  %77 = load ptr, ptr %76, align 8, !tbaa !22
  %78 = getelementptr inbounds nuw %struct.Agnodeinfo_t, ptr %77, i32 0, i32 43
  %79 = load i32, ptr %78, align 8, !tbaa !133
  %80 = sext i32 %79 to i64
  %81 = getelementptr inbounds %struct.rank_t, ptr %74, i64 %80
  %82 = getelementptr inbounds nuw %struct.rank_t, ptr %81, i32 0, i32 5
  %83 = load double, ptr %82, align 8, !tbaa !168
  %84 = fadd double %69, %83
  call void @makeregularend(ptr dead_on_unwind writable sret(%struct.boxf) align 8 %17, ptr noundef byval(%struct.boxf) align 8 %15, i32 noundef 4, double noundef %84)
  call void @llvm.memcpy.p0.p0.i64(ptr align 8 %15, ptr align 8 %17, i64 32, i1 false), !tbaa.struct !172
  call void @llvm.lifetime.end.p0(i64 32, ptr %17) #13
  %85 = getelementptr inbounds nuw %struct.boxf, ptr %15, i32 0, i32 0
  %86 = getelementptr inbounds nuw %struct.pointf_s, ptr %85, i32 0, i32 0
  %87 = load double, ptr %86, align 8, !tbaa !173
  %88 = getelementptr inbounds nuw %struct.boxf, ptr %15, i32 0, i32 1
  %89 = getelementptr inbounds nuw %struct.pointf_s, ptr %88, i32 0, i32 0
  %90 = load double, ptr %89, align 8, !tbaa !176
  %91 = fcmp olt double %87, %90
  br i1 %91, label %92, label %109

92:                                               ; preds = %37
  %93 = getelementptr inbounds nuw %struct.boxf, ptr %15, i32 0, i32 0
  %94 = getelementptr inbounds nuw %struct.pointf_s, ptr %93, i32 0, i32 1
  %95 = load double, ptr %94, align 8, !tbaa !175
  %96 = getelementptr inbounds nuw %struct.boxf, ptr %15, i32 0, i32 1
  %97 = getelementptr inbounds nuw %struct.pointf_s, ptr %96, i32 0, i32 1
  %98 = load double, ptr %97, align 8, !tbaa !174
  %99 = fcmp olt double %95, %98
  br i1 %99, label %100, label %109

100:                                              ; preds = %92
  %101 = load ptr, ptr %13, align 8, !tbaa !235
  %102 = getelementptr inbounds nuw %struct.pathend_t, ptr %101, i32 0, i32 4
  %103 = load ptr, ptr %13, align 8, !tbaa !235
  %104 = getelementptr inbounds nuw %struct.pathend_t, ptr %103, i32 0, i32 3
  %105 = load i32, ptr %104, align 4, !tbaa !170
  %106 = add nsw i32 %105, 1
  store i32 %106, ptr %104, align 4, !tbaa !170
  %107 = sext i32 %105 to i64
  %108 = getelementptr inbounds [20 x %struct.boxf], ptr %102, i64 0, i64 %107
  call void @llvm.memcpy.p0.p0.i64(ptr align 8 %108, ptr align 8 %15, i64 32, i1 false), !tbaa.struct !172
  br label %109

109:                                              ; preds = %100, %92, %37
  call void @llvm.lifetime.end.p0(i64 32, ptr %15) #13
  ret void
}