; Function Attrs: nounwind uwtable
define internal fastcc void @makeFlatEnd(ptr noundef captures(address) %0, ptr noundef nonnull readonly captures(none) %1, ptr noundef nonnull %2, ptr noundef readonly captures(none) %3, ptr noundef %4, ptr noundef nonnull initializes((0, 32), (48, 52)) %5, i1 noundef zeroext %6) unnamed_addr #1 {
  %8 = alloca %struct.boxf, align 8
  call void @llvm.lifetime.start.p0(i64 32, ptr nonnull %8) #22
  %9 = getelementptr i8, ptr %3, i64 16
  %.val = load ptr, ptr %9, align 8, !tbaa !16
  call fastcc void @maximal_bbox(ptr dead_on_unwind noalias writable align 8 %8, ptr noundef %0, ptr noundef %1, ptr %.val, ptr noundef null, ptr noundef %4)
  call void @llvm.memcpy.p0.p0.i64(ptr noundef nonnull align 8 dereferenceable(32) %5, ptr noundef nonnull align 8 dereferenceable(32) %8, i64 32, i1 false), !tbaa.struct !205
  call void @llvm.lifetime.end.p0(i64 32, ptr nonnull %8) #22
  %.sroa.023.0.copyload = load double, ptr %5, align 8, !tbaa !70
  %.sroa.10.0..sroa_idx = getelementptr inbounds nuw i8, ptr %5, i64 16
  %.sroa.10.0.copyload = load double, ptr %.sroa.10.0..sroa_idx, align 8, !tbaa !70
  %10 = getelementptr inbounds nuw i8, ptr %5, i64 48
  store i32 4, ptr %10, align 8, !tbaa !186
  br i1 %6, label %11, label %12

11:                                               ; preds = %7
  tail call void @beginpath(ptr noundef nonnull %2, ptr noundef %4, i32 noundef 2, ptr noundef nonnull %5, i1 noundef zeroext false) #22
  br label %13

12:                                               ; preds = %7
  tail call void @endpath(ptr noundef nonnull %2, ptr noundef %4, i32 noundef 2, ptr noundef nonnull %5, i1 noundef zeroext false) #22
  br label %13

13:                                               ; preds = %12, %11
  %14 = getelementptr inbounds nuw i8, ptr %5, i64 56
  %15 = getelementptr inbounds nuw i8, ptr %5, i64 52
  %16 = load i32, ptr %15, align 4, !tbaa !188
  %17 = add nsw i32 %16, -1
  %18 = sext i32 %17 to i64
  %.idx = shl nsw i64 %18, 5
  %.offs = or disjoint i64 %.idx, 16
  %19 = getelementptr inbounds i8, ptr %14, i64 %.offs
  %20 = getelementptr inbounds nuw i8, ptr %19, i64 8
  %21 = load double, ptr %20, align 8, !tbaa !189
  %22 = load ptr, ptr %9, align 8, !tbaa !16
  %23 = getelementptr inbounds nuw i8, ptr %22, i64 40
  %24 = load double, ptr %23, align 8, !tbaa !81
  %25 = getelementptr inbounds nuw i8, ptr %0, i64 16
  %26 = load ptr, ptr %25, align 8, !tbaa !16
  %27 = getelementptr inbounds nuw i8, ptr %26, i64 264
  %28 = load ptr, ptr %27, align 8, !tbaa !94
  %29 = getelementptr inbounds nuw i8, ptr %22, i64 360
  %30 = load i32, ptr %29, align 8, !tbaa !112
  %31 = sext i32 %30 to i64
  %32 = getelementptr inbounds %struct.rank_t, ptr %28, i64 %31, i32 5
  %33 = load double, ptr %32, align 8, !tbaa !185
  %34 = fadd double %24, %33
  %35 = fcmp olt double %.sroa.023.0.copyload, %.sroa.10.0.copyload
  %36 = fcmp olt double %21, %34
  %or.cond = select i1 %35, i1 %36, i1 false
  br i1 %or.cond, label %37, label %41

37:                                               ; preds = %13
  %38 = add nsw i32 %16, 1
  store i32 %38, ptr %15, align 4, !tbaa !188
  %39 = sext i32 %16 to i64
  %40 = getelementptr inbounds [20 x %struct.boxf], ptr %14, i64 0, i64 %39
  store double %.sroa.023.0.copyload, ptr %40, align 8, !tbaa !70
  %.sroa.7.0..sroa_idx26 = getelementptr inbounds nuw i8, ptr %40, i64 8
  store double %21, ptr %.sroa.7.0..sroa_idx26, align 8, !tbaa !70
  %.sroa.10.0..sroa_idx30 = getelementptr inbounds nuw i8, ptr %40, i64 16
  store double %.sroa.10.0.copyload, ptr %.sroa.10.0..sroa_idx30, align 8, !tbaa !70
  %.sroa.12.0..sroa_idx34 = getelementptr inbounds nuw i8, ptr %40, i64 24
  store double %34, ptr %.sroa.12.0..sroa_idx34, align 8, !tbaa !70
  br label %41

41:                                               ; preds = %37, %13
  ret void
}